target datalayout = "e-m:e-p270:32:32-p271:32:32-p272:64:64-i64:64-i128:128-f80:128-n8:16:32:64-S128"
target triple = "x86_64-pc-linux-gnu"

%"class.sat::literal" = type { i32 }
%"class.pb::pbc" = type <{ %"class.pb::constraint", i32, i32, i32, [0 x %"struct.std::pair"], [4 x i8] }>
%"class.pb::constraint" = type { ptr, i32, i8, %"class.sat::literal", %"class.sat::literal", i32, i32, i32, i64, i8, i32, i8, i32 }
%"struct.std::pair" = type { i32, %"class.sat::literal" }
%class.vector = type { ptr }

@_ZN3sat12null_literalE = linkonce_odr hidden constant %"class.sat::literal" { i32 -2 }, comdat, align 4

; Function Attrs: mustprogress nounwind uwtable
define linkonce_odr hidden noundef i64 @_ZN3sat15constraint_base8ext_sizeEv() #4 comdat align 2 {
  ret i64 8
}

; Function Attrs: mustprogress uwtable
define linkonce_odr hidden noundef i64 @_ZN3sat15constraint_base8obj_sizeEm(i64 noundef %0) #5 comdat align 2 {
  %2 = alloca i64, align 8
  store i64 %0, ptr %2, align 8, !tbaa !36
  %3 = call noundef i64 @_ZN3sat15constraint_base8ext_sizeEv()
  %4 = load i64, ptr %2, align 8, !tbaa !36
  %5 = add i64 %3, %4
  ret i64 %5
}

; Function Attrs: mustprogress nounwind uwtable
define linkonce_odr hidden void @_ZN2pb10constraintD2Ev(ptr noundef nonnull align 8 dereferenceable(64) %0) unnamed_addr #4 comdat align 2 {
  %2 = alloca ptr, align 8
  store ptr %0, ptr %2, align 8, !tbaa !3
  ret void
}

; Function Attrs: mustprogress nounwind uwtable
define linkonce_odr hidden noundef nonnull align 4 dereferenceable(8) ptr @_ZNSt4pairIjN3sat7literalEEaSERKS2_Qcl13_S_assignableIRKT_RKT0_EE(ptr noundef nonnull align 4 dereferenceable(8) %0, ptr noundef nonnull align 4 dereferenceable(8) %1) #4 comdat align 2 {
  %3 = alloca ptr, align 8
  %4 = alloca ptr, align 8
  store ptr %0, ptr %3, align 8, !tbaa !47
  store ptr %1, ptr %4, align 8, !tbaa !47
  %5 = load ptr, ptr %3, align 8
  %6 = load ptr, ptr %4, align 8, !tbaa !47
  %7 = getelementptr inbounds nuw %"struct.std::pair", ptr %6, i32 0, i32 0
  %8 = load i32, ptr %7, align 4, !tbaa !26
  %9 = getelementptr inbounds nuw %"struct.std::pair", ptr %5, i32 0, i32 0
  store i32 %8, ptr %9, align 4, !tbaa !26
  %10 = load ptr, ptr %4, align 8, !tbaa !47
  %11 = getelementptr inbounds nuw %"struct.std::pair", ptr %10, i32 0, i32 1
  %12 = getelementptr inbounds nuw %"struct.std::pair", ptr %5, i32 0, i32 1
  call void @llvm.memcpy.p0.p0.i64(ptr align 4 %12, ptr align 4 %11, i64 4, i1 false), !tbaa.struct !14
  ret ptr %5
}

; Function Attrs: mustprogress nounwind uwtable
define linkonce_odr hidden noundef nonnull align 4 dereferenceable(8) ptr @_ZNK6vectorISt4pairIjN3sat7literalEELb0EjEixEj(ptr noundef nonnull align 8 dereferenceable(8) %0, i32 noundef %1) #4 comdat align 2 {
  %3 = alloca ptr, align 8
  %4 = alloca i32, align 4
  store ptr %0, ptr %3, align 8, !tbaa !30
  store i32 %1, ptr %4, align 4, !tbaa !10
  %5 = load ptr, ptr %3, align 8
  %6 = getelementptr inbounds nuw %class.vector, ptr %5, i32 0, i32 0
  %7 = load ptr, ptr %6, align 8, !tbaa !32
  %8 = load i32, ptr %4, align 4, !tbaa !10
  %9 = zext i32 %8 to i64
  %10 = getelementptr inbounds nuw %"struct.std::pair", ptr %7, i64 %9
  ret ptr %10
}

; Function Attrs: mustprogress nounwind uwtable
define linkonce_odr hidden noundef i32 @_ZNK2pb10constraint4sizeEv(ptr noundef nonnull align 8 dereferenceable(64) %0) #4 comdat align 2 {
  %2 = alloca ptr, align 8
  store ptr %0, ptr %2, align 8, !tbaa !3
  %3 = load ptr, ptr %2, align 8
  %4 = getelementptr inbounds nuw %"class.pb::constraint", ptr %3, i32 0, i32 7
  %5 = load i32, ptr %4, align 8, !tbaa !41
  ret i32 %5
}

; Function Attrs: mustprogress nounwind uwtable
define linkonce_odr hidden void @_ZN2pb10constraintC2ENS_5tag_tEjN3sat7literalEjmj(ptr noundef nonnull align 8 dereferenceable(64) %0, i32 noundef %1, i32 noundef %2, i32 %3, i32 noundef %4, i64 noundef %5, i32 noundef %6) unnamed_addr #4 comdat align 2 {
  %8 = alloca %"class.sat::literal", align 4
  %9 = alloca ptr, align 8
  %10 = alloca i32, align 4
  %11 = alloca i32, align 4
  %12 = alloca i32, align 4
  %13 = alloca i64, align 8
  %14 = alloca i32, align 4
  %15 = getelementptr inbounds nuw %"class.sat::literal", ptr %8, i32 0, i32 0
  store i32 %3, ptr %15, align 4
  store ptr %0, ptr %9, align 8, !tbaa !3
  store i32 %1, ptr %10, align 4, !tbaa !35
  store i32 %2, ptr %11, align 4, !tbaa !10
  store i32 %4, ptr %12, align 4, !tbaa !10
  store i64 %5, ptr %13, align 8, !tbaa !36
  store i32 %6, ptr %14, align 4, !tbaa !10
  %16 = load ptr, ptr %9, align 8
  store ptr getelementptr inbounds inrange(-16, 168) ({ [23 x ptr] }, ptr @_ZTVN2pb10constraintE, i32 0, i32 0, i32 2), ptr %16, align 8, !tbaa !15
  %17 = getelementptr inbounds nuw %"class.pb::constraint", ptr %16, i32 0, i32 1
  %18 = load i32, ptr %10, align 4, !tbaa !35
  store i32 %18, ptr %17, align 8, !tbaa !37
  %19 = getelementptr inbounds nuw %"class.pb::constraint", ptr %16, i32 0, i32 2
  store i8 0, ptr %19, align 4, !tbaa !38
  %20 = getelementptr inbounds nuw %"class.pb::constraint", ptr %16, i32 0, i32 3
  call void @llvm.memcpy.p0.p0.i64(ptr align 8 %20, ptr align 4 %8, i64 4, i1 false), !tbaa.struct !14
  %21 = getelementptr inbounds nuw %"class.pb::constraint", ptr %16, i32 0, i32 4
  call void @llvm.memcpy.p0.p0.i64(ptr align 4 %21, ptr align 4 @_ZN3sat12null_literalE, i64 4, i1 false), !tbaa.struct !14
  %22 = getelementptr inbounds nuw %"class.pb::constraint", ptr %16, i32 0, i32 5
  store i32 0, ptr %22, align 8, !tbaa !39
  %23 = getelementptr inbounds nuw %"class.pb::constraint", ptr %16, i32 0, i32 6
  store i32 0, ptr %23, align 4, !tbaa !40
  %24 = getelementptr inbounds nuw %"class.pb::constraint", ptr %16, i32 0, i32 7
  %25 = load i32, ptr %12, align 4, !tbaa !10
  store i32 %25, ptr %24, align 8, !tbaa !41
  %26 = getelementptr inbounds nuw %"class.pb::constraint", ptr %16, i32 0, i32 8
  %27 = load i64, ptr %13, align 8, !tbaa !36
  store i64 %27, ptr %26, align 8, !tbaa !42
  %28 = getelementptr inbounds nuw %"class.pb::constraint", ptr %16, i32 0, i32 9
  store i8 0, ptr %28, align 8, !tbaa !43
  %29 = getelementptr inbounds nuw %"class.pb::constraint", ptr %16, i32 0, i32 10
  %30 = load i32, ptr %11, align 4, !tbaa !10
  store i32 %30, ptr %29, align 4, !tbaa !44
  %31 = getelementptr inbounds nuw %"class.pb::constraint", ptr %16, i32 0, i32 11
  store i8 0, ptr %31, align 8, !tbaa !45
  %32 = getelementptr inbounds nuw %"class.pb::constraint", ptr %16, i32 0, i32 12
  %33 = load i32, ptr %14, align 4, !tbaa !10
  store i32 %33, ptr %32, align 4, !tbaa !46
  ret void
}

; Function Attrs: mustprogress uwtable
define linkonce_odr hidden noundef i64 @_ZN2pb3pbc12get_obj_sizeEj(i32 noundef %0) #5 comdat align 2 {
  %2 = alloca i32, align 4
  store i32 %0, ptr %2, align 4, !tbaa !10
  %3 = load i32, ptr %2, align 4, !tbaa !10
  %4 = zext i32 %3 to i64
  %5 = mul i64 %4, 8
  %6 = add i64 80, %5
  %7 = call noundef i64 @_ZN3sat15constraint_base8obj_sizeEm(i64 noundef %6)
  ret i64 %7
}

; Function Attrs: mustprogress nounwind uwtable
define linkonce_odr hidden noundef i32 @_ZNK6vectorISt4pairIjN3sat7literalEELb0EjE4sizeEv(ptr noundef nonnull align 8 dereferenceable(8) %0) #4 comdat align 2 {
  %2 = alloca i32, align 4
  %3 = alloca ptr, align 8
  store ptr %0, ptr %3, align 8, !tbaa !30
  %4 = load ptr, ptr %3, align 8
  %5 = getelementptr inbounds nuw %class.vector, ptr %4, i32 0, i32 0
  %6 = load ptr, ptr %5, align 8, !tbaa !32
  %7 = icmp eq ptr %6, null
  br i1 %7, label %8, label %9

8:                                                ; preds = %1
  store i32 0, ptr %2, align 4
  br label %14

9:                                                ; preds = %1
  %10 = getelementptr inbounds nuw %class.vector, ptr %4, i32 0, i32 0
  %11 = load ptr, ptr %10, align 8, !tbaa !32
  %12 = getelementptr inbounds i32, ptr %11, i64 -1
  %13 = load i32, ptr %12, align 4, !tbaa !10
  store i32 %13, ptr %2, align 4
  br label %14

14:                                               ; preds = %9, %8
  %15 = load i32, ptr %2, align 4
  ret i32 %15
}

; Function Attrs: mustprogress uwtable
define hidden void @_ZN2pb3pbcC2EjN3sat7literalERK7svectorISt4pairIjS2_EjEj(ptr noundef nonnull align 8 dereferenceable(76) %0, i32 noundef %1, i32 %2, ptr noundef nonnull align 8 dereferenceable(8) %3, i32 noundef %4) unnamed_addr #5 align 2 personality ptr @__gxx_personality_v0 {
  %6 = alloca %"class.sat::literal", align 4
  %7 = alloca ptr, align 8
  %8 = alloca i32, align 4
  %9 = alloca ptr, align 8
  %10 = alloca i32, align 4
  %11 = alloca %"class.sat::literal", align 4
  %12 = alloca i32, align 4
  %13 = alloca ptr, align 8
  %14 = alloca i32, align 4
  %15 = getelementptr inbounds nuw %"class.sat::literal", ptr %6, i32 0, i32 0
  store i32 %2, ptr %15, align 4
  store ptr %0, ptr %7, align 8, !tbaa !8
  store i32 %1, ptr %8, align 4, !tbaa !10
  store ptr %3, ptr %9, align 8, !tbaa !12
  store i32 %4, ptr %10, align 4, !tbaa !10
  %16 = load ptr, ptr %7, align 8
  %17 = load i32, ptr %8, align 4, !tbaa !10
  call void @llvm.memcpy.p0.p0.i64(ptr align 4 %11, ptr align 4 %6, i64 4, i1 false), !tbaa.struct !14
  %18 = load ptr, ptr %9, align 8, !tbaa !12
  %19 = call noundef i32 @_ZNK6vectorISt4pairIjN3sat7literalEELb0EjE4sizeEv(ptr noundef nonnull align 8 dereferenceable(8) %18)
  %20 = load ptr, ptr %9, align 8, !tbaa !12
  %21 = call noundef i32 @_ZNK6vectorISt4pairIjN3sat7literalEELb0EjE4sizeEv(ptr noundef nonnull align 8 dereferenceable(8) %20)
  %22 = call noundef i64 @_ZN2pb3pbc12get_obj_sizeEj(i32 noundef %21)
  %23 = load i32, ptr %10, align 4, !tbaa !10
  %24 = getelementptr inbounds nuw %"class.sat::literal", ptr %11, i32 0, i32 0
  %25 = load i32, ptr %24, align 4
  call void @_ZN2pb10constraintC2ENS_5tag_tEjN3sat7literalEjmj(ptr noundef nonnull align 8 dereferenceable(64) %16, i32 noundef 1, i32 noundef %17, i32 %25, i32 noundef %19, i64 noundef %22, i32 noundef %23)
  store ptr getelementptr inbounds inrange(-16, 168) ({ [23 x ptr] }, ptr @_ZTVN2pb3pbcE, i32 0, i32 0, i32 2), ptr %16, align 8, !tbaa !15
  %26 = getelementptr inbounds nuw %"class.pb::pbc", ptr %16, i32 0, i32 1
  store i32 0, ptr %26, align 8, !tbaa !17
  %27 = getelementptr inbounds nuw %"class.pb::pbc", ptr %16, i32 0, i32 2
  store i32 0, ptr %27, align 4, !tbaa !24
  %28 = getelementptr inbounds nuw %"class.pb::pbc", ptr %16, i32 0, i32 3
  store i32 0, ptr %28, align 8, !tbaa !25
  call void @llvm.lifetime.start.p0(i64 4, ptr %12) #3
  store i32 0, ptr %12, align 4, !tbaa !10
  br label %29

29:                                               ; preds = %65, %5
  %30 = load i32, ptr %12, align 4, !tbaa !10
  %31 = invoke noundef i32 @_ZNK2pb10constraint4sizeEv(ptr noundef nonnull align 8 dereferenceable(64) %16)
          to label %32 unwind label %35

32:                                               ; preds = %29
  %33 = icmp ult i32 %30, %31
  br i1 %33, label %39, label %34

34:                                               ; preds = %32
  call void @llvm.lifetime.end.p0(i64 4, ptr %12) #3
  br label %68

35:                                               ; preds = %43, %39, %29
  %36 = landingpad { ptr, i32 }
          cleanup
  %37 = extractvalue { ptr, i32 } %36, 0
  store ptr %37, ptr %13, align 8
  %38 = extractvalue { ptr, i32 } %36, 1
  store i32 %38, ptr %14, align 4
  call void @llvm.lifetime.end.p0(i64 4, ptr %12) #3
  br label %74

39:                                               ; preds = %32
  %40 = load ptr, ptr %9, align 8, !tbaa !12
  %41 = load i32, ptr %12, align 4, !tbaa !10
  %42 = invoke noundef nonnull align 4 dereferenceable(8) ptr @_ZNK6vectorISt4pairIjN3sat7literalEELb0EjEixEj(ptr noundef nonnull align 8 dereferenceable(8) %40, i32 noundef %41)
          to label %43 unwind label %35

43:                                               ; preds = %39
  %44 = getelementptr inbounds nuw %"class.pb::pbc", ptr %16, i32 0, i32 4
  %45 = load i32, ptr %12, align 4, !tbaa !10
  %46 = zext i32 %45 to i64
  %47 = getelementptr inbounds nuw [0 x %"struct.std::pair"], ptr %44, i64 0, i64 %46
  %48 = call noundef nonnull align 4 dereferenceable(8) ptr @_ZNSt4pairIjN3sat7literalEEaSERKS2_Qcl13_S_assignableIRKT_RKT0_EE(ptr noundef nonnull align 4 dereferenceable(8) %47, ptr noundef nonnull align 4 dereferenceable(8) %42) #3
  %49 = load ptr, ptr %9, align 8, !tbaa !12
  %50 = load i32, ptr %12, align 4, !tbaa !10
  %51 = invoke noundef nonnull align 4 dereferenceable(8) ptr @_ZNK6vectorISt4pairIjN3sat7literalEELb0EjEixEj(ptr noundef nonnull align 8 dereferenceable(8) %49, i32 noundef %50)
          to label %52 unwind label %35

52:                                               ; preds = %43
  %53 = getelementptr inbounds nuw %"struct.std::pair", ptr %51, i32 0, i32 0
  %54 = load i32, ptr %53, align 4, !tbaa !26
  %55 = load i32, ptr %10, align 4, !tbaa !10
  %56 = icmp ugt i32 %54, %55
  br i1 %56, label %57, label %64

57:                                               ; preds = %52
  %58 = load i32, ptr %10, align 4, !tbaa !10
  %59 = getelementptr inbounds nuw %"class.pb::pbc", ptr %16, i32 0, i32 4
  %60 = load i32, ptr %12, align 4, !tbaa !10
  %61 = zext i32 %60 to i64
  %62 = getelementptr inbounds nuw [0 x %"struct.std::pair"], ptr %59, i64 0, i64 %61
  %63 = getelementptr inbounds nuw %"struct.std::pair", ptr %62, i32 0, i32 0
  store i32 %58, ptr %63, align 4, !tbaa !26
  br label %64

64:                                               ; preds = %57, %52
  br label %65

65:                                               ; preds = %64
  %66 = load i32, ptr %12, align 4, !tbaa !10
  %67 = add i32 %66, 1
  store i32 %67, ptr %12, align 4, !tbaa !10
  br label %29, !llvm.loop !28

68:                                               ; preds = %34
  invoke void @_ZN2pb3pbc14update_max_sumEv(ptr noundef nonnull align 8 dereferenceable(76) %16)
          to label %69 unwind label %70

69:                                               ; preds = %68
  ret void

70:                                               ; preds = %68
  %71 = landingpad { ptr, i32 }
          cleanup
  %72 = extractvalue { ptr, i32 } %71, 0
  store ptr %72, ptr %13, align 8
  %73 = extractvalue { ptr, i32 } %71, 1
  store i32 %73, ptr %14, align 4
  br label %74

74:                                               ; preds = %70, %35
  call void @_ZN2pb10constraintD2Ev(ptr noundef nonnull align 8 dereferenceable(64) %16) #3
  br label %75

75:                                               ; preds = %74
  %76 = load ptr, ptr %13, align 8
  %77 = load i32, ptr %14, align 4
  %78 = insertvalue { ptr, i32 } poison, ptr %76, 0
  %79 = insertvalue { ptr, i32 } %78, i32 %77, 1
  resume { ptr, i32 } %79
}