; Function Attrs: mustprogress uwtable
define hidden void @_ZN2pb3pbcC2EjN3sat7literalERK7svectorISt4pairIjS2_EjEj(ptr noundef nonnull align 8 captures(none) dereferenceable(76) initializes((0, 13), (16, 36), (40, 49), (52, 57), (60, 76)) %0, i32 noundef %1, i32 %2, ptr noundef nonnull readonly align 8 captures(none) dereferenceable(8) %3, i32 noundef %4) unnamed_addr #4 align 2 personality ptr @__gxx_personality_v0 {
  %6 = load ptr, ptr %3, align 8, !tbaa !3
  %7 = icmp eq ptr %6, null
  br i1 %7, label %_ZNK6vectorISt4pairIjN3sat7literalEELb0EjE4sizeEv.exit19, label %8

8:                                                ; preds = %5
  %9 = getelementptr inbounds i8, ptr %6, i64 -4
  %10 = load i32, ptr %9, align 4, !tbaa !9
  br label %_ZNK6vectorISt4pairIjN3sat7literalEELb0EjE4sizeEv.exit19

_ZNK6vectorISt4pairIjN3sat7literalEELb0EjE4sizeEv.exit19: ; preds = %5, %8
  %.0.i18 = phi i32 [ %10, %8 ], [ 0, %5 ]
  %11 = zext i32 %.0.i18 to i64
  %12 = shl nuw nsw i64 %11, 3
  %13 = add nuw nsw i64 %12, 88
  %14 = getelementptr inbounds nuw i8, ptr %0, i64 8
  store i32 1, ptr %14, align 8, !tbaa !11
  %15 = getelementptr inbounds nuw i8, ptr %0, i64 12
  store i8 0, ptr %15, align 4, !tbaa !17
  %16 = getelementptr inbounds nuw i8, ptr %0, i64 16
  store i32 %2, ptr %16, align 8, !tbaa !9
  %17 = getelementptr inbounds nuw i8, ptr %0, i64 20
  store i32 -2, ptr %17, align 4, !tbaa !9
  %18 = getelementptr inbounds nuw i8, ptr %0, i64 24
  store i32 0, ptr %18, align 8, !tbaa !18
  %19 = getelementptr inbounds nuw i8, ptr %0, i64 28
  store i32 0, ptr %19, align 4, !tbaa !19
  %20 = getelementptr inbounds nuw i8, ptr %0, i64 32
  store i32 %.0.i18, ptr %20, align 8, !tbaa !20
  %21 = getelementptr inbounds nuw i8, ptr %0, i64 40
  store i64 %13, ptr %21, align 8, !tbaa !21
  %22 = getelementptr inbounds nuw i8, ptr %0, i64 48
  store i8 0, ptr %22, align 8, !tbaa !22
  %23 = getelementptr inbounds nuw i8, ptr %0, i64 52
  store i32 %1, ptr %23, align 4, !tbaa !23
  %24 = getelementptr inbounds nuw i8, ptr %0, i64 56
  store i8 0, ptr %24, align 8, !tbaa !24
  %25 = getelementptr inbounds nuw i8, ptr %0, i64 60
  store i32 %4, ptr %25, align 4, !tbaa !25
  store ptr getelementptr inbounds nuw inrange(-16, 168) (i8, ptr @_ZTVN2pb3pbcE, i64 16), ptr %0, align 8, !tbaa !26
  %26 = getelementptr inbounds nuw i8, ptr %0, i64 64
  store i32 0, ptr %26, align 8, !tbaa !28
  %27 = getelementptr inbounds nuw i8, ptr %0, i64 68
  store i32 0, ptr %27, align 4, !tbaa !30
  %28 = getelementptr inbounds nuw i8, ptr %0, i64 72
  store i32 0, ptr %28, align 8, !tbaa !31
  %.not = icmp eq i32 %.0.i18, 0
  br i1 %.not, label %._crit_edge, label %.lr.ph

.lr.ph:                                           ; preds = %_ZNK6vectorISt4pairIjN3sat7literalEELb0EjE4sizeEv.exit19
  %29 = getelementptr inbounds nuw i8, ptr %0, i64 76
  br label %30

._crit_edge:                                      ; preds = %40, %_ZNK6vectorISt4pairIjN3sat7literalEELb0EjE4sizeEv.exit19
  tail call void @_ZN2pb3pbc14update_max_sumEv(ptr noundef nonnull align 8 dereferenceable(76) %0)
  ret void

30:                                               ; preds = %.lr.ph, %40
  %indvars.iv = phi i64 [ 0, %.lr.ph ], [ %indvars.iv.next, %40 ]
  %31 = getelementptr inbounds nuw %"struct.std::pair", ptr %6, i64 %indvars.iv
  %32 = getelementptr inbounds nuw [0 x %"struct.std::pair"], ptr %29, i64 0, i64 %indvars.iv
  %33 = load i32, ptr %31, align 4, !tbaa !32
  store i32 %33, ptr %32, align 4, !tbaa !32
  %34 = getelementptr inbounds nuw i8, ptr %31, i64 4
  %35 = getelementptr inbounds nuw i8, ptr %32, i64 4
  %36 = load i32, ptr %34, align 4, !tbaa !9
  store i32 %36, ptr %35, align 8, !tbaa !9
  %37 = load i32, ptr %31, align 4, !tbaa !32
  %38 = icmp ugt i32 %37, %4
  br i1 %38, label %39, label %40

39:                                               ; preds = %30
  store i32 %4, ptr %32, align 4, !tbaa !32
  br label %40

40:                                               ; preds = %30, %39
  %indvars.iv.next = add nuw nsw i64 %indvars.iv, 1
  %exitcond.not = icmp eq i64 %indvars.iv.next, %11
  br i1 %exitcond.not, label %._crit_edge, label %30, !llvm.loop !34
}